; Function Attrs: nounwind uwtable
define ptr @l_List_forIn_x27_loop___at_Lean_Server_Test_Runner_main___spec__32___lambda__7(ptr noundef %0, ptr noundef %1, ptr noundef %2, ptr noundef %3, ptr noundef %4, ptr noundef %5, ptr noundef %6, ptr noundef %7, ptr noundef %8, ptr noundef %9, ptr noundef %10, i8 zeroext %11, ptr noundef %12, ptr readnone captures(none) %13, ptr noundef %14, ptr noundef %15) local_unnamed_addr #1 {
  %17 = load ptr, ptr @l_List_forIn_x27_loop___at_Lean_Server_Test_Runner_main___spec__32___lambda__6___closed__1, align 8, !tbaa !4
  %18 = icmp eq ptr %8, %17
  br i1 %18, label %lean_string_dec_eq.exit.thread42, label %19

19:                                               ; preds = %16
  %20 = getelementptr i8, ptr %8, i64 8
  %.val.i.i = load i64, ptr %20, align 8, !tbaa !12
  %21 = getelementptr i8, ptr %17, i64 8
  %.val7.i.i = load i64, ptr %21, align 8, !tbaa !12
  %22 = icmp eq i64 %.val.i.i, %.val7.i.i
  br i1 %22, label %lean_string_dec_eq.exit, label %lean_string_dec_eq.exit.thread

lean_string_dec_eq.exit:                          ; preds = %19
  %23 = tail call zeroext i1 @lean_string_eq_cold(ptr noundef nonnull %8, ptr noundef nonnull %17) #6
  br i1 %23, label %lean_string_dec_eq.exit.thread42, label %lean_string_dec_eq.exit.thread

lean_string_dec_eq.exit.thread:                   ; preds = %19, %lean_string_dec_eq.exit
  %24 = load ptr, ptr @l_List_forIn_x27_loop___at_Lean_Server_Test_Runner_main___spec__32___lambda__6___closed__5, align 8, !tbaa !4
  tail call void @lean_inc_heartbeat() #6
  %25 = tail call noalias ptr @mi_malloc_small(i64 noundef 24) #6
  %26 = icmp eq ptr %25, null
  br i1 %26, label %27, label %lean_alloc_ctor.exit

27:                                               ; preds = %lean_string_dec_eq.exit.thread
  tail call void @lean_internal_panic_out_of_memory() #7
  unreachable

lean_string_dec_eq.exit.thread42:                 ; preds = %16, %lean_string_dec_eq.exit
  %28 = load ptr, ptr @l_List_forIn_x27_loop___at_Lean_Server_Test_Runner_main___spec__32___lambda__6___closed__5, align 8, !tbaa !4
  tail call void @lean_inc_heartbeat() #6
  %29 = tail call noalias ptr @mi_malloc_small(i64 noundef 24) #6
  %30 = icmp eq ptr %29, null
  br i1 %30, label %31, label %lean_alloc_ctor.exit

31:                                               ; preds = %lean_string_dec_eq.exit.thread42
  tail call void @lean_internal_panic_out_of_memory() #7
  unreachable

lean_alloc_ctor.exit:                             ; preds = %lean_string_dec_eq.exit.thread42, %lean_string_dec_eq.exit.thread
  %.sink51 = phi ptr [ %25, %lean_string_dec_eq.exit.thread ], [ %29, %lean_string_dec_eq.exit.thread42 ]
  %.sink46 = phi ptr [ %24, %lean_string_dec_eq.exit.thread ], [ %9, %lean_string_dec_eq.exit.thread42 ]
  %.sink43 = phi ptr [ %9, %lean_string_dec_eq.exit.thread ], [ %28, %lean_string_dec_eq.exit.thread42 ]
  %32 = getelementptr inbounds nuw i8, ptr %.sink51, i64 4
  store i32 1, ptr %.sink51, align 4, !tbaa !8
  store i32 131096, ptr %32, align 4
  %33 = getelementptr inbounds nuw i8, ptr %.sink51, i64 8
  store ptr %.sink46, ptr %33, align 8, !tbaa !4
  %34 = getelementptr inbounds nuw i8, ptr %.sink51, i64 16
  store ptr %.sink43, ptr %34, align 8, !tbaa !4
  %35 = tail call ptr @l_List_forIn_x27_loop___at_Lean_Server_Test_Runner_main___spec__32___lambda__5(ptr noundef %0, ptr noundef %1, ptr noundef %2, ptr noundef %3, ptr noundef %4, ptr noundef %5, ptr noundef %6, ptr noundef %7, ptr noundef %10, i8 zeroext poison, ptr noundef %12, ptr noundef nonnull %.sink51, ptr noundef %14, ptr noundef %15)
  ret ptr %35
}